; Function Attrs: mustprogress nounwind uwtable
define dso_local void @_ZN4llvm26writeThinLinkBitcodeToFileERKNS_6ModuleERNS_11raw_ostreamERKNS_18ModuleSummaryIndexERKSt5arrayIjLm5EE(ptr noundef nonnull align 8 dereferenceable(857) %0, ptr noundef nonnull align 8 dereferenceable(48) %1, ptr noundef nonnull align 8 dereferenceable(488) %2, ptr noundef nonnull align 4 dereferenceable(20) %3) local_unnamed_addr #0 {
  %5 = alloca %"class.llvm::SmallVector.27", align 8
  %6 = alloca %"class.llvm::BitcodeWriter", align 8
  %7 = getelementptr inbounds i8, ptr %5, i64 24
  call void @_ZN4llvm15SmallVectorBaseImEC2EPvm(ptr noundef nonnull align 8 dereferenceable(24) %5, ptr noundef nonnull %7, i64 noundef 0) #27
  %8 = call noundef i64 @_ZNK4llvm15SmallVectorBaseImE8capacityEv(ptr noundef nonnull align 8 dereferenceable(24) %5) #27
  %9 = icmp ult i64 %8, 262144
  br i1 %9, label %10, label %_ZN4llvm15SmallVectorImplIcE7reserveEm.exit

10:                                               ; preds = %4
  call void @_ZN4llvm15SmallVectorBaseImE8grow_podEPvmm(ptr noundef nonnull align 8 dereferenceable(24) %5, ptr noundef nonnull %7, i64 noundef 262144, i64 noundef 1) #27
  br label %_ZN4llvm15SmallVectorImplIcE7reserveEm.exit

_ZN4llvm15SmallVectorImplIcE7reserveEm.exit:      ; preds = %4, %10
  call void @_ZN4llvm13BitcodeWriterC1ERNS_15SmallVectorImplIcEE(ptr noundef nonnull align 8 dereferenceable(176) %6, ptr noundef nonnull align 8 dereferenceable(24) %5) #27
  call void @_ZN4llvm13BitcodeWriter20writeThinLinkBitcodeERKNS_6ModuleERKNS_18ModuleSummaryIndexERKSt5arrayIjLm5EE(ptr noundef nonnull align 8 dereferenceable(176) %6, ptr noundef nonnull align 8 dereferenceable(857) %0, ptr noundef nonnull align 8 dereferenceable(488) %2, ptr noundef nonnull align 4 dereferenceable(20) %3)
  call void @_ZN4llvm13BitcodeWriter11writeSymtabEv(ptr noundef nonnull align 8 dereferenceable(176) %6)
  call void @_ZN4llvm13BitcodeWriter11writeStrtabEv(ptr noundef nonnull align 8 dereferenceable(176) %6)
  %11 = load ptr, ptr %5, align 8
  %12 = call noundef i64 @_ZNK4llvm15SmallVectorBaseImE4sizeEv(ptr noundef nonnull align 8 dereferenceable(24) %5) #27
  %13 = call noundef nonnull align 8 dereferenceable(48) ptr @_ZN4llvm11raw_ostream5writeEPKcm(ptr noundef nonnull align 8 dereferenceable(48) %1, ptr noundef nonnull %11, i64 noundef %12) #27
  call void @_ZN4llvm13BitcodeWriterD1Ev(ptr noundef nonnull align 8 dereferenceable(176) %6) #27
  %14 = call noundef i64 @_ZNK4llvm15SmallVectorBaseImE4sizeEv(ptr noundef nonnull align 8 dereferenceable(24) %5) #27
  %15 = load ptr, ptr %5, align 8
  %16 = icmp eq ptr %15, %7
  br i1 %16, label %_ZN4llvm11SmallVectorIcLj0EED2Ev.exit, label %17

17:                                               ; preds = %_ZN4llvm15SmallVectorImplIcE7reserveEm.exit
  call void @free(ptr noundef %15) #27
  br label %_ZN4llvm11SmallVectorIcLj0EED2Ev.exit

_ZN4llvm11SmallVectorIcLj0EED2Ev.exit:            ; preds = %_ZN4llvm15SmallVectorImplIcE7reserveEm.exit, %17
  ret void
}